; Function Attrs: mustprogress nofree norecurse nosync nounwind willreturn memory(argmem: write) uwtable
define void @X509_STORE_CTX_set0_trusted_stack(ptr noundef writeonly captures(none) initializes((40, 48), (64, 72), (120, 128)) %0, ptr noundef %1) local_unnamed_addr #5 {
  %3 = getelementptr inbounds nuw i8, ptr %0, i64 40
  store ptr %1, ptr %3, align 8, !tbaa !132
  %4 = getelementptr inbounds nuw i8, ptr %0, i64 64
  store ptr @get1_best_issuer_other_sk, ptr %4, align 8, !tbaa !133
  %5 = getelementptr inbounds nuw i8, ptr %0, i64 120
  store ptr @lookup_certs_sk, ptr %5, align 8, !tbaa !139
  ret void
}